; ModuleID = '31/1049.c'
source_filename = "31/1049.c"
target datalayout = "e-m:e-p270:32:32-p271:32:32-p272:64:64-i64:64-f80:128-n8:16:32:64-S128"
target triple = "x86_64-pc-linux-gnu"

%struct.student = type { [20 x i8], [20 x i8], [2 x i8], i32, float, [100 x i8], %struct.student* }

@.str = private unnamed_addr constant [3 x i8] c"%s\00", align 1
@.str.1 = private unnamed_addr constant [11 x i8] c"%s%s%d%f%s\00", align 1
@.str.2 = private unnamed_addr constant [19 x i8] c"%s %s %s %d %g %s\0A\00", align 1

; Function Attrs: noinline nounwind uwtable
define dso_local i32 @main() #0 {
  %1 = alloca i32, align 4
  %2 = alloca %struct.student*, align 8
  %3 = alloca %struct.student*, align 8
  %4 = alloca %struct.student*, align 8
  store i32 0, i32* %1, align 4
  %5 = call noalias i8* @malloc(i64 160) #3
  %6 = bitcast i8* %5 to %struct.student*
  store %struct.student* %6, %struct.student** %2, align 8
  %7 = load %struct.student*, %struct.student** %2, align 8
  %8 = getelementptr inbounds %struct.student, %struct.student* %7, i32 0, i32 6
  store %struct.student* null, %struct.student** %8, align 8
  %9 = load %struct.student*, %struct.student** %2, align 8
  %10 = getelementptr inbounds %struct.student, %struct.student* %9, i32 0, i32 0
  %11 = getelementptr inbounds [20 x i8], [20 x i8]* %10, i64 0, i64 0
  %12 = call i32 (i8*, ...) @__isoc99_scanf(i8* getelementptr inbounds ([3 x i8], [3 x i8]* @.str, i64 0, i64 0), i8* %11)
  %13 = load %struct.student*, %struct.student** %2, align 8
  %14 = getelementptr inbounds %struct.student, %struct.student* %13, i32 0, i32 0
  %15 = getelementptr inbounds [20 x i8], [20 x i8]* %14, i64 0, i64 0
  %16 = load i8, i8* %15, align 8
  %17 = sext i8 %16 to i32
  %18 = icmp ne i32 %17, 101
  br i1 %18, label %19, label %82

19:                                               ; preds = %0
  br label %20

20:                                               ; preds = %27, %19
  %21 = load %struct.student*, %struct.student** %2, align 8
  %22 = getelementptr inbounds %struct.student, %struct.student* %21, i32 0, i32 0
  %23 = getelementptr inbounds [20 x i8], [20 x i8]* %22, i64 0, i64 0
  %24 = load i8, i8* %23, align 8
  %25 = sext i8 %24 to i32
  %26 = icmp ne i32 %25, 101
  br i1 %26, label %27, label %52

27:                                               ; preds = %20
  %28 = load %struct.student*, %struct.student** %2, align 8
  %29 = getelementptr inbounds %struct.student, %struct.student* %28, i32 0, i32 1
  %30 = getelementptr inbounds [20 x i8], [20 x i8]* %29, i64 0, i64 0
  %31 = load %struct.student*, %struct.student** %2, align 8
  %32 = getelementptr inbounds %struct.student, %struct.student* %31, i32 0, i32 2
  %33 = getelementptr inbounds [2 x i8], [2 x i8]* %32, i64 0, i64 0
  %34 = load %struct.student*, %struct.student** %2, align 8
  %35 = getelementptr inbounds %struct.student, %struct.student* %34, i32 0, i32 3
  %36 = load %struct.student*, %struct.student** %2, align 8
  %37 = getelementptr inbounds %struct.student, %struct.student* %36, i32 0, i32 4
  %38 = load %struct.student*, %struct.student** %2, align 8
  %39 = getelementptr inbounds %struct.student, %struct.student* %38, i32 0, i32 5
  %40 = getelementptr inbounds [100 x i8], [100 x i8]* %39, i64 0, i64 0
  %41 = call i32 (i8*, ...) @__isoc99_scanf(i8* getelementptr inbounds ([11 x i8], [11 x i8]* @.str.1, i64 0, i64 0), i8* %30, i8* %33, i32* %35, float* %37, i8* %40)
  %42 = load %struct.student*, %struct.student** %2, align 8
  store %struct.student* %42, %struct.student** %3, align 8
  %43 = call noalias i8* @malloc(i64 160) #3
  %44 = bitcast i8* %43 to %struct.student*
  store %struct.student* %44, %struct.student** %2, align 8
  %45 = load %struct.student*, %struct.student** %3, align 8
  %46 = load %struct.student*, %struct.student** %2, align 8
  %47 = getelementptr inbounds %struct.student, %struct.student* %46, i32 0, i32 6
  store %struct.student* %45, %struct.student** %47, align 8
  %48 = load %struct.student*, %struct.student** %2, align 8
  %49 = getelementptr inbounds %struct.student, %struct.student* %48, i32 0, i32 0
  %50 = getelementptr inbounds [20 x i8], [20 x i8]* %49, i64 0, i64 0
  %51 = call i32 (i8*, ...) @__isoc99_scanf(i8* getelementptr inbounds ([3 x i8], [3 x i8]* @.str, i64 0, i64 0), i8* %50)
  br label %20

52:                                               ; preds = %20
  %53 = load %struct.student*, %struct.student** %3, align 8
  store %struct.student* %53, %struct.student** %4, align 8
  br label %54

54:                                               ; preds = %57, %52
  %55 = load %struct.student*, %struct.student** %4, align 8
  %56 = icmp ne %struct.student* %55, null
  br i1 %56, label %57, label %81

57:                                               ; preds = %54
  %58 = load %struct.student*, %struct.student** %4, align 8
  %59 = getelementptr inbounds %struct.student, %struct.student* %58, i32 0, i32 0
  %60 = getelementptr inbounds [20 x i8], [20 x i8]* %59, i64 0, i64 0
  %61 = load %struct.student*, %struct.student** %4, align 8
  %62 = getelementptr inbounds %struct.student, %struct.student* %61, i32 0, i32 1
  %63 = getelementptr inbounds [20 x i8], [20 x i8]* %62, i64 0, i64 0
  %64 = load %struct.student*, %struct.student** %4, align 8
  %65 = getelementptr inbounds %struct.student, %struct.student* %64, i32 0, i32 2
  %66 = getelementptr inbounds [2 x i8], [2 x i8]* %65, i64 0, i64 0
  %67 = load %struct.student*, %struct.student** %4, align 8
  %68 = getelementptr inbounds %struct.student, %struct.student* %67, i32 0, i32 3
  %69 = load i32, i32* %68, align 4
  %70 = load %struct.student*, %struct.student** %4, align 8
  %71 = getelementptr inbounds %struct.student, %struct.student* %70, i32 0, i32 4
  %72 = load float, float* %71, align 8
  %73 = fpext float %72 to double
  %74 = load %struct.student*, %struct.student** %4, align 8
  %75 = getelementptr inbounds %struct.student, %struct.student* %74, i32 0, i32 5
  %76 = getelementptr inbounds [100 x i8], [100 x i8]* %75, i64 0, i64 0
  %77 = call i32 (i8*, ...) @printf(i8* getelementptr inbounds ([19 x i8], [19 x i8]* @.str.2, i64 0, i64 0), i8* %60, i8* %63, i8* %66, i32 %69, double %73, i8* %76)
  %78 = load %struct.student*, %struct.student** %4, align 8
  %79 = getelementptr inbounds %struct.student, %struct.student* %78, i32 0, i32 6
  %80 = load %struct.student*, %struct.student** %79, align 8
  store %struct.student* %80, %struct.student** %4, align 8
  br label %54

81:                                               ; preds = %54
  br label %82

82:                                               ; preds = %81, %0
  ret i32 0
}

; Function Attrs: nounwind
declare dso_local noalias i8* @malloc(i64) #1

declare dso_local i32 @__isoc99_scanf(i8*, ...) #2

declare dso_local i32 @printf(i8*, ...) #2


!llvm.module.flags = !{!0}
!llvm.ident = !{!1}

!0 = !{i32 1, !"wchar_size", i32 4}
!1 = !{!"clang version 10.0.0-4ubuntu1 "}
